target datalayout = "e-m:e-p270:32:32-p271:32:32-p272:64:64-i64:64-i128:128-f80:128-n8:16:32:64-S128"
target triple = "x86_64-pc-linux-gnu"

%struct.b2World = type { %struct.b2ArenaAllocator, %struct.b2BroadPhase, %struct.b2ConstraintGraph, %struct.b2IdPool, %struct.b2BodyArray, %struct.b2IdPool, %struct.b2SolverSetArray, %struct.b2IdPool, %struct.b2JointArray, %struct.b2IdPool, %struct.b2ContactArray, %struct.b2IdPool, %struct.b2IslandArray, %struct.b2IdPool, %struct.b2IdPool, %struct.b2ShapeArray, %struct.b2ChainShapeArray, %struct.b2SensorArray, %struct.b2TaskContextArray, %struct.b2SensorTaskContextArray, %struct.b2BodyMoveEventArray, %struct.b2SensorBeginTouchEventArray, %struct.b2ContactBeginTouchEventArray, [2 x %struct.b2SensorEndTouchEventArray], [2 x %struct.b2ContactEndTouchEventArray], i32, %struct.b2ContactHitEventArray, %struct.b2BitSet, %struct.b2BitSet, %struct.b2BitSet, i64, i32, %struct.b2Vec2, float, float, float, float, float, float, float, float, ptr, ptr, i16, %struct.b2Profile, ptr, ptr, ptr, ptr, i32, ptr, ptr, ptr, ptr, ptr, float, i32, i32, i16, i8, i8, i8, i8, i8, i8 }
%struct.b2ArenaAllocator = type { ptr, i32, i32, i32, i32, %struct.b2ArenaEntryArray }
%struct.b2ArenaEntryArray = type { ptr, i32, i32 }
%struct.b2BroadPhase = type { [3 x %struct.b2DynamicTree], i32, %struct.b2HashSet, %struct.b2IntArray, ptr, ptr, i32, %struct.b2AtomicInt, %struct.b2HashSet }
%struct.b2DynamicTree = type { ptr, i32, i32, i32, i32, i32, ptr, ptr, ptr, ptr, i32 }
%struct.b2IntArray = type { ptr, i32, i32 }
%struct.b2AtomicInt = type { i32 }
%struct.b2HashSet = type { ptr, i32, i32 }
%struct.b2ConstraintGraph = type { [12 x %struct.b2GraphColor] }
%struct.b2GraphColor = type { %struct.b2BitSet, %struct.b2ContactSimArray, %struct.b2JointSimArray, %union.anon }
%struct.b2ContactSimArray = type { ptr, i32, i32 }
%struct.b2JointSimArray = type { ptr, i32, i32 }
%union.anon = type { ptr }
%struct.b2BodyArray = type { ptr, i32, i32 }
%struct.b2SolverSetArray = type { ptr, i32, i32 }
%struct.b2JointArray = type { ptr, i32, i32 }
%struct.b2ContactArray = type { ptr, i32, i32 }
%struct.b2IslandArray = type { ptr, i32, i32 }
%struct.b2IdPool = type { %struct.b2IntArray, i32 }
%struct.b2ShapeArray = type { ptr, i32, i32 }
%struct.b2ChainShapeArray = type { ptr, i32, i32 }
%struct.b2SensorArray = type { ptr, i32, i32 }
%struct.b2TaskContextArray = type { ptr, i32, i32 }
%struct.b2SensorTaskContextArray = type { ptr, i32, i32 }
%struct.b2BodyMoveEventArray = type { ptr, i32, i32 }
%struct.b2SensorBeginTouchEventArray = type { ptr, i32, i32 }
%struct.b2ContactBeginTouchEventArray = type { ptr, i32, i32 }
%struct.b2SensorEndTouchEventArray = type { ptr, i32, i32 }
%struct.b2ContactEndTouchEventArray = type { ptr, i32, i32 }
%struct.b2ContactHitEventArray = type { ptr, i32, i32 }
%struct.b2BitSet = type { ptr, i32, i32 }
%struct.b2Vec2 = type { float, float }
%struct.b2Profile = type { float, float, float, float, float, float, float, float, float, float, float, float, float, float, float, float, float, float, float, float, float, float }
%struct.b2WorldId = type { i16, i16 }
%struct.b2SolverSet = type { %struct.b2BodySimArray, %struct.b2BodyStateArray, %struct.b2JointSimArray, %struct.b2ContactSimArray, %struct.b2IslandSimArray, i32 }
%struct.b2BodySimArray = type { ptr, i32, i32 }
%struct.b2BodyStateArray = type { ptr, i32, i32 }
%struct.b2IslandSimArray = type { ptr, i32, i32 }

@b2_worlds = hidden global [128 x %struct.b2World] zeroinitializer, align 16

; Function Attrs: inlinehint nounwind uwtable
define internal ptr @b2SolverSetArray_Get(ptr noundef %0, i32 noundef %1) #5 {
  %3 = alloca ptr, align 8
  %4 = alloca i32, align 4
  store ptr %0, ptr %3, align 8, !tbaa !12
  store i32 %1, ptr %4, align 4, !tbaa !3
  %5 = load ptr, ptr %3, align 8, !tbaa !12
  %6 = getelementptr inbounds nuw %struct.b2SolverSetArray, ptr %5, i32 0, i32 0
  %7 = load ptr, ptr %6, align 8, !tbaa !209
  %8 = load i32, ptr %4, align 4, !tbaa !3
  %9 = sext i32 %8 to i64
  %10 = getelementptr inbounds %struct.b2SolverSet, ptr %7, i64 %9
  ret ptr %10
}

; Function Attrs: nounwind uwtable
define hidden ptr @b2GetWorldFromId(i32 %0) #0 {
  %2 = alloca %struct.b2WorldId, align 2
  %3 = alloca ptr, align 8
  store i32 %0, ptr %2, align 2
  call void @llvm.lifetime.start.p0(i64 8, ptr %3) #10
  %4 = getelementptr inbounds nuw %struct.b2WorldId, ptr %2, i32 0, i32 0
  %5 = load i16, ptr %4, align 2, !tbaa !44
  %6 = zext i16 %5 to i32
  %7 = sub nsw i32 %6, 1
  %8 = sext i32 %7 to i64
  %9 = getelementptr inbounds %struct.b2World, ptr @b2_worlds, i64 %8
  store ptr %9, ptr %3, align 8, !tbaa !47
  %10 = load ptr, ptr %3, align 8, !tbaa !47
  call void @llvm.lifetime.end.p0(i64 8, ptr %3) #10
  ret ptr %10
}

; Function Attrs: nounwind uwtable
define void @b2World_EnableSleeping(i32 %0, i1 noundef zeroext %1) #0 {
  %3 = alloca %struct.b2WorldId, align 2
  %4 = alloca i8, align 1
  %5 = alloca ptr, align 8
  %6 = alloca i32, align 4
  %7 = alloca i32, align 4
  %8 = alloca i32, align 4
  %9 = alloca ptr, align 8
  store i32 %0, ptr %3, align 2
  %10 = zext i1 %1 to i8
  store i8 %10, ptr %4, align 1, !tbaa !125
  call void @llvm.lifetime.start.p0(i64 8, ptr %5) #10
  %11 = load i32, ptr %3, align 2
  %12 = call ptr @b2GetWorldFromId(i32 %11)
  store ptr %12, ptr %5, align 8, !tbaa !47
  %13 = load ptr, ptr %5, align 8, !tbaa !47
  %14 = getelementptr inbounds nuw %struct.b2World, ptr %13, i32 0, i32 60
  %15 = load i8, ptr %14, align 1, !tbaa !49, !range !90, !noundef !91
  %16 = trunc i8 %15 to i1
  br i1 %16, label %17, label %18

17:                                               ; preds = %2
  store i32 1, ptr %6, align 4
  br label %68

18:                                               ; preds = %2
  %19 = load i8, ptr %4, align 1, !tbaa !125, !range !90, !noundef !91
  %20 = trunc i8 %19 to i1
  %21 = zext i1 %20 to i32
  %22 = load ptr, ptr %5, align 8, !tbaa !47
  %23 = getelementptr inbounds nuw %struct.b2World, ptr %22, i32 0, i32 59
  %24 = load i8, ptr %23, align 2, !tbaa !185, !range !90, !noundef !91
  %25 = trunc i8 %24 to i1
  %26 = zext i1 %25 to i32
  %27 = icmp eq i32 %21, %26
  br i1 %27, label %28, label %29

28:                                               ; preds = %18
  store i32 1, ptr %6, align 4
  br label %68

29:                                               ; preds = %18
  %30 = load i8, ptr %4, align 1, !tbaa !125, !range !90, !noundef !91
  %31 = trunc i8 %30 to i1
  %32 = load ptr, ptr %5, align 8, !tbaa !47
  %33 = getelementptr inbounds nuw %struct.b2World, ptr %32, i32 0, i32 59
  %34 = zext i1 %31 to i8
  store i8 %34, ptr %33, align 2, !tbaa !185
  %35 = load i8, ptr %4, align 1, !tbaa !125, !range !90, !noundef !91
  %36 = trunc i8 %35 to i1
  %37 = zext i1 %36 to i32
  %38 = icmp eq i32 %37, 0
  br i1 %38, label %39, label %67

39:                                               ; preds = %29
  call void @llvm.lifetime.start.p0(i64 4, ptr %7) #10
  %40 = load ptr, ptr %5, align 8, !tbaa !47
  %41 = getelementptr inbounds nuw %struct.b2World, ptr %40, i32 0, i32 6
  %42 = getelementptr inbounds nuw %struct.b2SolverSetArray, ptr %41, i32 0, i32 1
  %43 = load i32, ptr %42, align 8, !tbaa !227
  store i32 %43, ptr %7, align 4, !tbaa !3
  call void @llvm.lifetime.start.p0(i64 4, ptr %8) #10
  store i32 3, ptr %8, align 4, !tbaa !3
  br label %44

44:                                               ; preds = %63, %39
  %45 = load i32, ptr %8, align 4, !tbaa !3
  %46 = load i32, ptr %7, align 4, !tbaa !3
  %47 = icmp slt i32 %45, %46
  br i1 %47, label %49, label %48

48:                                               ; preds = %44
  store i32 2, ptr %6, align 4
  call void @llvm.lifetime.end.p0(i64 4, ptr %8) #10
  br label %66

49:                                               ; preds = %44
  call void @llvm.lifetime.start.p0(i64 8, ptr %9) #10
  %50 = load ptr, ptr %5, align 8, !tbaa !47
  %51 = getelementptr inbounds nuw %struct.b2World, ptr %50, i32 0, i32 6
  %52 = load i32, ptr %8, align 4, !tbaa !3
  %53 = call ptr @b2SolverSetArray_Get(ptr noundef %51, i32 noundef %52)
  store ptr %53, ptr %9, align 8, !tbaa !109
  %54 = load ptr, ptr %9, align 8, !tbaa !109
  %55 = getelementptr inbounds nuw %struct.b2SolverSet, ptr %54, i32 0, i32 0
  %56 = getelementptr inbounds nuw %struct.b2BodySimArray, ptr %55, i32 0, i32 1
  %57 = load i32, ptr %56, align 8, !tbaa !310
  %58 = icmp sgt i32 %57, 0
  br i1 %58, label %59, label %62

59:                                               ; preds = %49
  %60 = load ptr, ptr %5, align 8, !tbaa !47
  %61 = load i32, ptr %8, align 4, !tbaa !3
  call void @b2WakeSolverSet(ptr noundef %60, i32 noundef %61)
  br label %62

62:                                               ; preds = %59, %49
  call void @llvm.lifetime.end.p0(i64 8, ptr %9) #10
  br label %63

63:                                               ; preds = %62
  %64 = load i32, ptr %8, align 4, !tbaa !3
  %65 = add nsw i32 %64, 1
  store i32 %65, ptr %8, align 4, !tbaa !3
  br label %44, !llvm.loop !458

66:                                               ; preds = %48
  call void @llvm.lifetime.end.p0(i64 4, ptr %7) #10
  br label %67

67:                                               ; preds = %66, %29
  store i32 0, ptr %6, align 4
  br label %68

68:                                               ; preds = %67, %28, %17
  call void @llvm.lifetime.end.p0(i64 8, ptr %5) #10
  %69 = load i32, ptr %6, align 4
  switch i32 %69, label %71 [
    i32 0, label %70
    i32 1, label %70
  ]

70:                                               ; preds = %68, %68
  ret void

71:                                               ; preds = %68
  unreachable
}