; Function Attrs: nounwind uwtable
define void @b2World_EnableSleeping(i32 %0, i1 noundef zeroext %1) local_unnamed_addr #0 {
  %3 = zext i1 %1 to i8
  %4 = and i32 %0, 65535
  %5 = zext nneg i32 %4 to i64
  %6 = getelementptr %struct.b2World, ptr @b2_worlds, i64 %5
  %7 = getelementptr i8, ptr %6, i64 -1792
  %8 = getelementptr i8, ptr %6, i64 -9
  %9 = load i8, ptr %8, align 1, !tbaa !35, !range !77, !noundef !78
  %10 = trunc nuw i8 %9 to i1
  br i1 %10, label %.loopexit, label %11

11:                                               ; preds = %2
  %12 = getelementptr i8, ptr %6, i64 -10
  %13 = load i8, ptr %12, align 2, !tbaa !134, !range !77, !noundef !78
  %14 = icmp eq i8 %13, %3
  br i1 %14, label %.loopexit, label %15

15:                                               ; preds = %11
  store i8 %3, ptr %12, align 2, !tbaa !134
  br i1 %1, label %.loopexit, label %16

16:                                               ; preds = %15
  %17 = getelementptr i8, ptr %6, i64 -720
  %18 = getelementptr i8, ptr %6, i64 -712
  %19 = load i32, ptr %18, align 8, !tbaa !166
  %20 = icmp sgt i32 %19, 3
  br i1 %20, label %.lr.ph.preheader, label %.loopexit

.lr.ph.preheader:                                 ; preds = %16
  %wide.trip.count = zext nneg i32 %19 to i64
  br label %.lr.ph

.lr.ph:                                           ; preds = %.lr.ph.preheader, %26
  %indvars.iv = phi i64 [ 3, %.lr.ph.preheader ], [ %indvars.iv.next, %26 ]
  %.val = load ptr, ptr %17, align 16, !tbaa !94
  %21 = getelementptr inbounds nuw %struct.b2SolverSet, ptr %.val, i64 %indvars.iv, i32 0, i32 1
  %22 = load i32, ptr %21, align 8, !tbaa !303
  %23 = icmp sgt i32 %22, 0
  br i1 %23, label %24, label %26

24:                                               ; preds = %.lr.ph
  %25 = trunc nuw nsw i64 %indvars.iv to i32
  tail call void @b2WakeSolverSet(ptr noundef %7, i32 noundef %25) #22
  br label %26

26:                                               ; preds = %24, %.lr.ph
  %indvars.iv.next = add nuw nsw i64 %indvars.iv, 1
  %exitcond.not = icmp eq i64 %indvars.iv.next, %wide.trip.count
  br i1 %exitcond.not, label %.loopexit, label %.lr.ph, !llvm.loop !376

.loopexit:                                        ; preds = %26, %16, %15, %11, %2
  ret void
}